target datalayout = "e-m:e-p270:32:32-p271:32:32-p272:64:64-i64:64-i128:128-f80:128-n8:16:32:64-S128"
target triple = "x86_64-pc-linux-gnu"

%struct.batcher_s = type { %struct.atomic_zu_t, i64, i64, %struct.malloc_mutex_s }
%struct.atomic_zu_t = type { i64 }
%struct.malloc_mutex_s = type { %union.anon }
%union.anon = type { %struct.anon }
%struct.anon = type { %struct.mutex_prof_data_t, %struct.atomic_b_t, %union.pthread_mutex_t }
%struct.mutex_prof_data_t = type { %struct.nstime_t, %struct.nstime_t, i64, i64, i32, %struct.atomic_u32_t, i64, ptr, i64 }
%struct.nstime_t = type { i64 }
%struct.atomic_u32_t = type { i32 }
%struct.atomic_b_t = type { i8 }
%union.pthread_mutex_t = type { %struct.__pthread_mutex_s }
%struct.__pthread_mutex_s = type { i32, i32, i32, i32, i32, i16, i16, %struct.__pthread_internal_list }
%struct.__pthread_internal_list = type { ptr, ptr }

@.str = private unnamed_addr constant [8 x i8] c"batcher\00", align 1

; Function Attrs: alwaysinline nounwind uwtable
define internal i32 @atomic_enum_to_builtin(i32 noundef %0) #1 {
  %2 = alloca i32, align 4
  %3 = alloca i32, align 4
  store i32 %0, ptr %3, align 4, !tbaa !16
  %4 = load i32, ptr %3, align 4, !tbaa !16
  switch i32 %4, label %10 [
    i32 0, label %5
    i32 1, label %6
    i32 2, label %7
    i32 3, label %8
    i32 4, label %9
  ]

5:                                                ; preds = %1
  store i32 0, ptr %2, align 4
  br label %12

6:                                                ; preds = %1
  store i32 2, ptr %2, align 4
  br label %12

7:                                                ; preds = %1
  store i32 3, ptr %2, align 4
  br label %12

8:                                                ; preds = %1
  store i32 4, ptr %2, align 4
  br label %12

9:                                                ; preds = %1
  store i32 5, ptr %2, align 4
  br label %12

10:                                               ; preds = %1
  br label %11

11:                                               ; preds = %10
  unreachable

12:                                               ; preds = %5, %6, %7, %8, %9
  %13 = load i32, ptr %2, align 4
  ret i32 %13
}

; Function Attrs: alwaysinline nounwind uwtable
define internal void @atomic_store_zu(ptr noundef %0, i64 noundef %1, i32 noundef %2) #1 {
  %4 = alloca ptr, align 8
  %5 = alloca i64, align 8
  %6 = alloca i32, align 4
  store ptr %0, ptr %4, align 8, !tbaa !15
  store i64 %1, ptr %5, align 8, !tbaa !8
  store i32 %2, ptr %6, align 4, !tbaa !16
  %7 = load ptr, ptr %4, align 8, !tbaa !15
  %8 = getelementptr inbounds nuw %struct.atomic_zu_t, ptr %7, i32 0, i32 0
  %9 = load i32, ptr %6, align 4, !tbaa !16
  %10 = call i32 @atomic_enum_to_builtin(i32 noundef %9)
  switch i32 %10, label %11 [
    i32 3, label %13
    i32 5, label %15
  ]

11:                                               ; preds = %3
  %12 = load i64, ptr %5, align 8
  store atomic i64 %12, ptr %8 monotonic, align 8
  br label %17

13:                                               ; preds = %3
  %14 = load i64, ptr %5, align 8
  store atomic i64 %14, ptr %8 release, align 8
  br label %17

15:                                               ; preds = %3
  %16 = load i64, ptr %5, align 8
  store atomic i64 %16, ptr %8 seq_cst, align 8
  br label %17

17:                                               ; preds = %15, %13, %11
  ret void
}

; Function Attrs: nounwind uwtable
define void @batcher_init(ptr noundef %0, i64 noundef %1) #0 {
  %3 = alloca ptr, align 8
  %4 = alloca i64, align 8
  store ptr %0, ptr %3, align 8, !tbaa !3
  store i64 %1, ptr %4, align 8, !tbaa !8
  %5 = load ptr, ptr %3, align 8, !tbaa !3
  %6 = getelementptr inbounds nuw %struct.batcher_s, ptr %5, i32 0, i32 0
  call void @atomic_store_zu(ptr noundef %6, i64 noundef 0, i32 noundef 0)
  %7 = load i64, ptr %4, align 8, !tbaa !8
  %8 = load ptr, ptr %3, align 8, !tbaa !3
  %9 = getelementptr inbounds nuw %struct.batcher_s, ptr %8, i32 0, i32 1
  store i64 %7, ptr %9, align 8, !tbaa !10
  %10 = load ptr, ptr %3, align 8, !tbaa !3
  %11 = getelementptr inbounds nuw %struct.batcher_s, ptr %10, i32 0, i32 2
  store i64 0, ptr %11, align 8, !tbaa !14
  %12 = load ptr, ptr %3, align 8, !tbaa !3
  %13 = getelementptr inbounds nuw %struct.batcher_s, ptr %12, i32 0, i32 3
  %14 = call zeroext i1 @duckdb_je_malloc_mutex_init(ptr noundef %13, ptr noundef @.str, i32 noundef 4096, i32 noundef 0)
  ret void
}